target datalayout = "e-m:e-p270:32:32-p271:32:32-p272:64:64-i64:64-i128:128-f80:128-n8:16:32:64-S128"
target triple = "x86_64-unknown-linux-gnu"

%"class.node::quic::QuicError" = type { %"class.node::MemoryRetainer", %"class.std::__cxx11::basic_string", %struct.ngtcp2_connection_close_error, ptr }
%"class.node::MemoryRetainer" = type { ptr }
%"class.std::__cxx11::basic_string" = type { %"struct.std::__cxx11::basic_string<char>::_Alloc_hider", i64, %union.anon.98 }
%"struct.std::__cxx11::basic_string<char>::_Alloc_hider" = type { ptr }
%union.anon.98 = type { i64, [8 x i8] }
%struct.ngtcp2_connection_close_error = type { i32, i64, i64, ptr, i64 }
%"class.std::basic_string_view" = type { i64, ptr }

@_ZN4node4quic9QuicErrorC1ESt17basic_string_viewIcSt11char_traitsIcEE = dso_local unnamed_addr alias void (ptr, i64, ptr), ptr @_ZN4node4quic9QuicErrorC2ESt17basic_string_viewIcSt11char_traitsIcEE

; Function Attrs: mustprogress nounwind uwtable
define linkonce_odr dso_local void @_ZN4node14MemoryRetainerD2Ev(ptr noundef nonnull align 8 dereferenceable(8) %this) unnamed_addr #4 comdat align 2 {
entry:
  %this.addr = alloca ptr, align 8
  store ptr %this, ptr %this.addr, align 8
  ret void
}

; Function Attrs: mustprogress nounwind uwtable
define linkonce_odr dso_local void @_ZN4node4quic9QuicErrorD2Ev(ptr noundef nonnull align 8 dereferenceable(88) %this) unnamed_addr #4 comdat align 2 {
entry:
  %this.addr = alloca ptr, align 8
  store ptr %this, ptr %this.addr, align 8
  %this1 = load ptr, ptr %this.addr, align 8
  %reason_ = getelementptr inbounds %"class.node::quic::QuicError", ptr %this1, i32 0, i32 1
  call void @_ZNSt7__cxx1112basic_stringIcSt11char_traitsIcESaIcEED1Ev(ptr noundef nonnull align 8 dereferenceable(32) %reason_) #3
  call void @_ZN4node14MemoryRetainerD2Ev(ptr noundef nonnull align 8 dereferenceable(8) %this1) #3
  ret void
}

; Function Attrs: mustprogress nounwind uwtable
define linkonce_odr dso_local noundef i64 @_ZNKSt17basic_string_viewIcSt11char_traitsIcEE6lengthEv(ptr noundef nonnull align 8 dereferenceable(16) %this) #4 comdat align 2 {
entry:
  %this.addr = alloca ptr, align 8
  store ptr %this, ptr %this.addr, align 8
  %this1 = load ptr, ptr %this.addr, align 8
  %_M_len = getelementptr inbounds %"class.std::basic_string_view", ptr %this1, i32 0, i32 0
  %0 = load i64, ptr %_M_len, align 8
  ret i64 %0
}

; Function Attrs: mustprogress nounwind uwtable
define dso_local noundef ptr @_ZNK4node4quic9QuicError12reason_c_strEv(ptr noundef nonnull align 8 dereferenceable(88) %this) #4 align 2 {
entry:
  %this.addr = alloca ptr, align 8
  store ptr %this, ptr %this.addr, align 8
  %this1 = load ptr, ptr %this.addr, align 8
  %reason_ = getelementptr inbounds %"class.node::quic::QuicError", ptr %this1, i32 0, i32 1
  %call = call noundef ptr @_ZNKSt7__cxx1112basic_stringIcSt11char_traitsIcESaIcEE5c_strEv(ptr noundef nonnull align 8 dereferenceable(32) %reason_) #3
  ret ptr %call
}

; Function Attrs: mustprogress nounwind uwtable
define dso_local void @_ZN4node4quic9QuicError14ForNgtcp2ErrorEiSt17basic_string_viewIcSt11char_traitsIcEE(ptr noalias sret(%"class.node::quic::QuicError") align 8 %agg.result, i32 noundef %code, i64 %reason.coerce0, ptr %reason.coerce1) #4 align 2 {
entry:
  %result.ptr = alloca ptr, align 8
  %reason = alloca %"class.std::basic_string_view", align 8
  %code.addr = alloca i32, align 4
  %nrvo = alloca i1, align 1
  %agg.tmp = alloca %"class.std::basic_string_view", align 8
  store ptr %agg.result, ptr %result.ptr, align 8
  %0 = getelementptr inbounds { i64, ptr }, ptr %reason, i32 0, i32 0
  store i64 %reason.coerce0, ptr %0, align 8
  %1 = getelementptr inbounds { i64, ptr }, ptr %reason, i32 0, i32 1
  store ptr %reason.coerce1, ptr %1, align 8
  store i32 %code, ptr %code.addr, align 4
  store i1 false, ptr %nrvo, align 1
  call void @llvm.memcpy.p0.p0.i64(ptr align 8 %agg.tmp, ptr align 8 %reason, i64 16, i1 false)
  %2 = getelementptr inbounds { i64, ptr }, ptr %agg.tmp, i32 0, i32 0
  %3 = load i64, ptr %2, align 8
  %4 = getelementptr inbounds { i64, ptr }, ptr %agg.tmp, i32 0, i32 1
  %5 = load ptr, ptr %4, align 8
  call void @_ZN4node4quic9QuicErrorC1ESt17basic_string_viewIcSt11char_traitsIcEE(ptr noundef nonnull align 8 dereferenceable(88) %agg.result, i64 %3, ptr %5)
  %error_ = getelementptr inbounds %"class.node::quic::QuicError", ptr %agg.result, i32 0, i32 2
  %6 = load i32, ptr %code.addr, align 4
  %call = call noundef ptr @_ZNK4node4quic9QuicError12reason_c_strEv(ptr noundef nonnull align 8 dereferenceable(88) %agg.result)
  %call1 = call noundef i64 @_ZNKSt17basic_string_viewIcSt11char_traitsIcEE6lengthEv(ptr noundef nonnull align 8 dereferenceable(16) %reason) #3
  call void @ngtcp2_connection_close_error_set_transport_error_liberr(ptr noundef %error_, i32 noundef %6, ptr noundef %call, i64 noundef %call1)
  store i1 true, ptr %nrvo, align 1
  %nrvo.val = load i1, ptr %nrvo, align 1
  br i1 %nrvo.val, label %nrvo.skipdtor, label %nrvo.unused

nrvo.unused:                                      ; preds = %entry
  call void @_ZN4node4quic9QuicErrorD2Ev(ptr noundef nonnull align 8 dereferenceable(88) %agg.result) #3
  br label %nrvo.skipdtor

nrvo.skipdtor:                                    ; preds = %nrvo.unused, %entry
  ret void
}